; Function Attrs: mustprogress uwtable
define noundef zeroext i1 @_ZN6google8protobuf24MergedDescriptorDatabase24FindFileContainingSymbolERKNSt7__cxx1112basic_stringIcSt11char_traitsIcESaIcEEEPNS0_19FileDescriptorProtoE(ptr nocapture noundef nonnull readonly align 8 dereferenceable(32) %this, ptr noundef nonnull align 8 dereferenceable(32) %symbol_name, ptr noundef %output) unnamed_addr #6 align 2 personality ptr @__gxx_personality_v0 {
entry:
  %temp = alloca %"class.google::protobuf::FileDescriptorProto", align 8
  %sources_ = getelementptr inbounds i8, ptr %this, i64 8
  %_M_finish.i = getelementptr inbounds i8, ptr %this, i64 16
  %0 = load ptr, ptr %_M_finish.i, align 8
  %1 = load ptr, ptr %sources_, align 8
  %cmp15.not = icmp eq ptr %0, %1
  br i1 %cmp15.not, label %return, label %for.body

for.body:                                         ; preds = %entry, %for.inc17
  %2 = phi ptr [ %13, %for.inc17 ], [ %1, %entry ]
  %i.016 = phi i64 [ %inc18, %for.inc17 ], [ 0, %entry ]
  %add.ptr.i = getelementptr inbounds ptr, ptr %2, i64 %i.016
  %3 = load ptr, ptr %add.ptr.i, align 8
  %vtable = load ptr, ptr %3, align 8
  %vfn = getelementptr inbounds i8, ptr %vtable, i64 24
  %4 = load ptr, ptr %vfn, align 8
  %call4 = tail call noundef zeroext i1 %4(ptr noundef nonnull align 8 dereferenceable(8) %3, ptr noundef nonnull align 8 dereferenceable(32) %symbol_name, ptr noundef %output)
  br i1 %call4, label %if.then, label %for.inc17

if.then:                                          ; preds = %for.body
  call void @_ZN6google8protobuf19FileDescriptorProtoC2EPNS0_5ArenaE(ptr noundef nonnull align 8 dereferenceable(224) %temp, ptr noundef null)
  %cmp617 = icmp eq i64 %i.016, 0
  br i1 %cmp617, label %cleanup, label %invoke.cont.lr.ph

invoke.cont.lr.ph:                                ; preds = %if.then
  %name_.i.i = getelementptr inbounds i8, ptr %output, i64 176
  br label %invoke.cont

for.cond5:                                        ; preds = %invoke.cont13
  %inc = add nuw i64 %j.018, 1
  %cmp6 = icmp uge i64 %inc, %i.016
  %exitcond = icmp eq i64 %inc, %i.016
  br i1 %exitcond, label %cleanup, label %invoke.cont, !llvm.loop !98

invoke.cont:                                      ; preds = %invoke.cont.lr.ph, %for.cond5
  %cmp619 = phi i1 [ false, %invoke.cont.lr.ph ], [ %cmp6, %for.cond5 ]
  %j.018 = phi i64 [ 0, %invoke.cont.lr.ph ], [ %inc, %for.cond5 ]
  %5 = load ptr, ptr %sources_, align 8
  %add.ptr.i7 = getelementptr inbounds ptr, ptr %5, i64 %j.018
  %6 = load ptr, ptr %add.ptr.i7, align 8
  %7 = load ptr, ptr %name_.i.i, align 8
  %8 = ptrtoint ptr %7 to i64
  %and.i.i.i = and i64 %8, -4
  %9 = inttoptr i64 %and.i.i.i to ptr
  %vtable11 = load ptr, ptr %6, align 8
  %vfn12 = getelementptr inbounds i8, ptr %vtable11, i64 16
  %10 = load ptr, ptr %vfn12, align 8
  %call14 = invoke noundef zeroext i1 %10(ptr noundef nonnull align 8 dereferenceable(8) %6, ptr noundef nonnull align 8 dereferenceable(32) %9, ptr noundef nonnull %temp)
          to label %invoke.cont13 unwind label %lpad

invoke.cont13:                                    ; preds = %invoke.cont
  br i1 %call14, label %cleanup, label %for.cond5

lpad:                                             ; preds = %invoke.cont
  %11 = landingpad { ptr, i32 }
          cleanup
  call void @_ZN6google8protobuf19FileDescriptorProtoD1Ev(ptr noundef nonnull align 8 dereferenceable(224) %temp) #28
  resume { ptr, i32 } %11

cleanup:                                          ; preds = %invoke.cont13, %for.cond5, %if.then
  %cmp6.lcssa = phi i1 [ true, %if.then ], [ %cmp6, %for.cond5 ], [ %cmp619, %invoke.cont13 ]
  call void @_ZN6google8protobuf19FileDescriptorProtoD1Ev(ptr noundef nonnull align 8 dereferenceable(224) %temp) #28
  br label %return

for.inc17:                                        ; preds = %for.body
  %inc18 = add nuw i64 %i.016, 1
  %12 = load ptr, ptr %_M_finish.i, align 8
  %13 = load ptr, ptr %sources_, align 8
  %sub.ptr.lhs.cast.i = ptrtoint ptr %12 to i64
  %sub.ptr.rhs.cast.i = ptrtoint ptr %13 to i64
  %sub.ptr.sub.i = sub i64 %sub.ptr.lhs.cast.i, %sub.ptr.rhs.cast.i
  %sub.ptr.div.i = ashr exact i64 %sub.ptr.sub.i, 3
  %cmp = icmp ult i64 %inc18, %sub.ptr.div.i
  br i1 %cmp, label %for.body, label %return, !llvm.loop !99

return:                                           ; preds = %for.inc17, %entry, %cleanup
  %retval.1 = phi i1 [ %cmp6.lcssa, %cleanup ], [ false, %entry ], [ false, %for.inc17 ]
  ret i1 %retval.1
}